target datalayout = "e-m:e-p270:32:32-p271:32:32-p272:64:64-i64:64-i128:128-f80:128-n8:16:32:64-S128"
target triple = "x86_64-pc-linux-gnu"

%"class.icu_77::UObject" = type { ptr }
%"class.icu_77::UnicodeString" = type { %"class.icu_77::Replaceable", %"union.icu_77::UnicodeString::StackBufferOrFields" }
%"class.icu_77::Replaceable" = type { %"class.icu_77::UObject" }
%"union.icu_77::UnicodeString::StackBufferOrFields" = type { %struct.anon.0, [32 x i8] }
%struct.anon.0 = type { i16, i32, i32, ptr }
%struct.anon = type { i16, [27 x i16] }

; Function Attrs: inlinehint mustprogress nounwind uwtable
define linkonce_odr noundef i32 @_ZNK6icu_7713UnicodeString14getShortLengthEv(ptr noundef nonnull align 8 dereferenceable(64) %0) #5 comdat align 2 {
  %2 = alloca ptr, align 8
  store ptr %0, ptr %2, align 8, !tbaa !36
  %3 = load ptr, ptr %2, align 8
  %4 = getelementptr inbounds nuw %"class.icu_77::UnicodeString", ptr %3, i32 0, i32 1
  %5 = getelementptr inbounds nuw %struct.anon.0, ptr %4, i32 0, i32 0
  %6 = load i16, ptr %5, align 8, !tbaa !31
  %7 = sext i16 %6 to i32
  %8 = ashr i32 %7, 5
  ret i32 %8
}

; Function Attrs: inlinehint mustprogress nounwind uwtable
define linkonce_odr noundef signext i8 @_ZNK6icu_7713UnicodeString14hasShortLengthEv(ptr noundef nonnull align 8 dereferenceable(64) %0) #5 comdat align 2 {
  %2 = alloca ptr, align 8
  store ptr %0, ptr %2, align 8, !tbaa !36
  %3 = load ptr, ptr %2, align 8
  %4 = getelementptr inbounds nuw %"class.icu_77::UnicodeString", ptr %3, i32 0, i32 1
  %5 = getelementptr inbounds nuw %struct.anon.0, ptr %4, i32 0, i32 0
  %6 = load i16, ptr %5, align 8, !tbaa !31
  %7 = sext i16 %6 to i32
  %8 = icmp sge i32 %7, 0
  %9 = zext i1 %8 to i8
  ret i8 %9
}

; Function Attrs: inlinehint mustprogress nounwind uwtable
define linkonce_odr noundef ptr @_ZNK6icu_7713UnicodeString9getBufferEv(ptr noundef nonnull align 8 dereferenceable(64) %0) #5 comdat align 2 {
  %2 = alloca ptr, align 8
  %3 = alloca ptr, align 8
  store ptr %0, ptr %3, align 8, !tbaa !36
  %4 = load ptr, ptr %3, align 8
  %5 = getelementptr inbounds nuw %"class.icu_77::UnicodeString", ptr %4, i32 0, i32 1
  %6 = getelementptr inbounds nuw %struct.anon.0, ptr %5, i32 0, i32 0
  %7 = load i16, ptr %6, align 8, !tbaa !31
  %8 = sext i16 %7 to i32
  %9 = and i32 %8, 17
  %10 = icmp ne i32 %9, 0
  br i1 %10, label %11, label %12

11:                                               ; preds = %1
  store ptr null, ptr %2, align 8
  br label %27

12:                                               ; preds = %1
  %13 = getelementptr inbounds nuw %"class.icu_77::UnicodeString", ptr %4, i32 0, i32 1
  %14 = getelementptr inbounds nuw %struct.anon.0, ptr %13, i32 0, i32 0
  %15 = load i16, ptr %14, align 8, !tbaa !31
  %16 = sext i16 %15 to i32
  %17 = and i32 %16, 2
  %18 = icmp ne i32 %17, 0
  br i1 %18, label %19, label %23

19:                                               ; preds = %12
  %20 = getelementptr inbounds nuw %"class.icu_77::UnicodeString", ptr %4, i32 0, i32 1
  %21 = getelementptr inbounds nuw %struct.anon, ptr %20, i32 0, i32 1
  %22 = getelementptr inbounds [27 x i16], ptr %21, i64 0, i64 0
  store ptr %22, ptr %2, align 8
  br label %27

23:                                               ; preds = %12
  %24 = getelementptr inbounds nuw %"class.icu_77::UnicodeString", ptr %4, i32 0, i32 1
  %25 = getelementptr inbounds nuw %struct.anon.0, ptr %24, i32 0, i32 3
  %26 = load ptr, ptr %25, align 8, !tbaa !31
  store ptr %26, ptr %2, align 8
  br label %27

27:                                               ; preds = %23, %19, %11
  %28 = load ptr, ptr %2, align 8
  ret ptr %28
}

; Function Attrs: inlinehint mustprogress uwtable
define linkonce_odr noundef i32 @_ZNK6icu_7713UnicodeString6lengthEv(ptr noundef nonnull align 8 dereferenceable(64) %0) #6 comdat align 2 {
  %2 = alloca ptr, align 8
  store ptr %0, ptr %2, align 8, !tbaa !36
  %3 = load ptr, ptr %2, align 8
  %4 = call noundef signext i8 @_ZNK6icu_7713UnicodeString14hasShortLengthEv(ptr noundef nonnull align 8 dereferenceable(64) %3)
  %5 = icmp ne i8 %4, 0
  br i1 %5, label %6, label %8

6:                                                ; preds = %1
  %7 = call noundef i32 @_ZNK6icu_7713UnicodeString14getShortLengthEv(ptr noundef nonnull align 8 dereferenceable(64) %3)
  br label %12

8:                                                ; preds = %1
  %9 = getelementptr inbounds nuw %"class.icu_77::UnicodeString", ptr %3, i32 0, i32 1
  %10 = getelementptr inbounds nuw %struct.anon.0, ptr %9, i32 0, i32 1
  %11 = load i32, ptr %10, align 4, !tbaa !31
  br label %12

12:                                               ; preds = %8, %6
  %13 = phi i32 [ %7, %6 ], [ %11, %8 ]
  ret i32 %13
}

; Function Attrs: mustprogress uwtable
define ptr @udatpg_getAppendItemFormat_77(ptr noundef %0, i32 noundef %1, ptr noundef %2) #0 {
  %4 = alloca ptr, align 8
  %5 = alloca i32, align 4
  %6 = alloca ptr, align 8
  %7 = alloca ptr, align 8
  store ptr %0, ptr %4, align 8, !tbaa !9
  store i32 %1, ptr %5, align 4, !tbaa !38
  store ptr %2, ptr %6, align 8, !tbaa !32
  call void @llvm.lifetime.start.p0(i64 8, ptr %7) #7
  %8 = load ptr, ptr %4, align 8, !tbaa !9
  %9 = load i32, ptr %5, align 4, !tbaa !38
  %10 = call noundef nonnull align 8 dereferenceable(64) ptr @_ZNK6icu_7724DateTimePatternGenerator19getAppendItemFormatE21UDateTimePatternField(ptr noundef nonnull align 8 dereferenceable(4796) %8, i32 noundef %9)
  store ptr %10, ptr %7, align 8, !tbaa !36
  %11 = load ptr, ptr %6, align 8, !tbaa !32
  %12 = icmp ne ptr %11, null
  br i1 %12, label %13, label %17

13:                                               ; preds = %3
  %14 = load ptr, ptr %7, align 8, !tbaa !36
  %15 = call noundef i32 @_ZNK6icu_7713UnicodeString6lengthEv(ptr noundef nonnull align 8 dereferenceable(64) %14)
  %16 = load ptr, ptr %6, align 8, !tbaa !32
  store i32 %15, ptr %16, align 4, !tbaa !17
  br label %17

17:                                               ; preds = %13, %3
  %18 = load ptr, ptr %7, align 8, !tbaa !36
  %19 = call noundef ptr @_ZNK6icu_7713UnicodeString9getBufferEv(ptr noundef nonnull align 8 dereferenceable(64) %18)
  call void @llvm.lifetime.end.p0(i64 8, ptr %7) #7
  ret ptr %19
}