; Function Attrs: mustprogress uwtable
define ptr @udatpg_getAppendItemFormat_77(ptr noundef nonnull %0, i32 noundef %1, ptr noundef writeonly %2) local_unnamed_addr #0 {
  %4 = tail call noundef nonnull align 8 dereferenceable(64) ptr @_ZNK6icu_7724DateTimePatternGenerator19getAppendItemFormatE21UDateTimePatternField(ptr noundef nonnull align 8 dereferenceable(4796) %0, i32 noundef %1)
  %.not = icmp eq ptr %2, null
  br i1 %.not, label %14, label %5

5:                                                ; preds = %3
  %6 = getelementptr inbounds nuw i8, ptr %4, i64 8
  %7 = load i16, ptr %6, align 8, !tbaa !17
  %8 = icmp slt i16 %7, 0
  %9 = ashr i16 %7, 5
  %10 = sext i16 %9 to i32
  %11 = getelementptr inbounds nuw i8, ptr %4, i64 12
  %12 = load i32, ptr %11, align 4
  %13 = select i1 %8, i32 %12, i32 %10
  store i32 %13, ptr %2, align 4, !tbaa !18
  br label %14

14:                                               ; preds = %5, %3
  %15 = getelementptr inbounds nuw i8, ptr %4, i64 8
  %16 = load i16, ptr %15, align 8, !tbaa !17
  %17 = and i16 %16, 17
  %.not.i = icmp eq i16 %17, 0
  br i1 %.not.i, label %18, label %_ZNK6icu_7713UnicodeString9getBufferEv.exit

18:                                               ; preds = %14
  %19 = and i16 %16, 2
  %.not2.i = icmp eq i16 %19, 0
  br i1 %.not2.i, label %22, label %20

20:                                               ; preds = %18
  %21 = getelementptr inbounds nuw i8, ptr %4, i64 10
  br label %_ZNK6icu_7713UnicodeString9getBufferEv.exit

22:                                               ; preds = %18
  %23 = getelementptr inbounds nuw i8, ptr %4, i64 24
  %24 = load ptr, ptr %23, align 8, !tbaa !17
  br label %_ZNK6icu_7713UnicodeString9getBufferEv.exit

_ZNK6icu_7713UnicodeString9getBufferEv.exit:      ; preds = %14, %20, %22
  %.0.i = phi ptr [ %21, %20 ], [ %24, %22 ], [ null, %14 ]
  ret ptr %.0.i
}